Certificate:
    Data:
        Version: 3 (0x2)
        Serial Number: 14362717160795412928 (0xc7529f292a9e19c0)
    Signature Algorithm: sha1WithRSAEncryption
        Issuer: C=CN, ST=Shanghai, O=TheDream, OU=Tech, CN=ldap.local.com/emailAddress=cppking@126.com
        Validity
            Not Before: Oct  9 02:57:02 2015 GMT
            Not After : Oct  8 02:57:02 2018 GMT
        Subject: C=CN, ST=Shanghai, O=TheDream, OU=Tech, CN=ldap.local.com/emailAddress=cppking@126.com
        Subject Public Key Info:
            Public Key Algorithm: rsaEncryption
                Public-Key: (2048 bit)
                Modulus:
                    00:b8:96:7d:04:d5:b5:ad:a4:c1:f1:38:7b:a0:bf:
                    4e:9a:f0:0c:d5:c9:31:11:4b:ab:4b:ae:e3:d5:09:
                    47:e9:2b:94:06:a2:73:05:13:cb:26:d9:cd:f1:f1:
                    e4:67:93:32:b9:24:9d:02:05:55:a4:4c:da:8c:b2:
                    40:68:d3:b7:85:19:b5:c0:aa:74:89:64:ec:49:19:
                    16:8d:c0:e8:a6:bc:79:99:3b:e2:a3:d5:b2:49:c1:
                    f9:2b:d0:19:b4:4a:82:e3:52:17:15:12:b3:1d:42:
                    71:d7:dc:12:86:f0:5c:69:52:b0:c1:3a:d6:05:20:
                    c3:5a:d1:fd:8c:57:6a:f1:a6:76:bf:4a:a7:ff:5b:
                    55:a4:20:06:2a:fb:36:3c:24:41:5e:62:b6:49:2b:
                    3d:1d:bb:df:d1:f1:f2:f7:09:e1:eb:4b:88:df:1c:
                    ff:32:d3:29:60:a2:75:6e:2c:8b:87:51:2d:68:d7:
                    21:54:cb:d9:fa:33:eb:d6:51:a9:7c:be:71:ac:0f:
                    e8:84:08:78:1b:4f:53:ba:f1:4c:ab:09:2e:16:c2:
                    7c:e6:da:b6:e6:4d:58:8d:3c:a9:5e:10:14:f1:0d:
                    59:a7:ca:ce:8e:01:1a:56:bd:7f:1f:5d:ab:74:58:
                    3f:02:ba:c8:86:95:35:72:0f:d4:a5:86:5c:f2:0e:
                    f2:63
                Exponent: 65537 (0x10001)
        X509v3 extensions:
            X509v3 Subject Key Identifier: 
                4E:00:99:90:99:89:15:A1:05:A0:A1:E2:BB:18:B9:6F:C5:2E:21:80
            X509v3 Authority Key Identifier: 
                keyid:4E:00:99:90:99:89:15:A1:05:A0:A1:E2:BB:18:B9:6F:C5:2E:21:80

            X509v3 Basic Constraints: 
                CA:TRUE
    Signature Algorithm: sha1WithRSAEncryption
         32:e2:d1:e8:93:b1:49:77:d4:24:cf:50:77:d1:b1:7a:c9:d0:
         2c:f1:4a:83:ec:bb:c6:38:41:63:08:0c:fd:3a:aa:dc:59:e2:
         93:76:6c:b0:3a:d4:90:da:85:08:81:73:f6:80:60:4c:bf:4f:
         d0:a6:77:cc:06:9b:fe:76:a1:38:96:e9:6a:fd:69:7f:39:33:
         38:fc:ee:3b:14:fc:99:a2:7e:3e:a3:ec:b3:5c:a2:c6:8b:47:
         ae:b4:13:8e:10:e6:ce:96:a2:b6:83:5c:03:9c:c2:25:19:6d:
         f3:60:6f:f0:a8:b6:a1:b7:fc:7c:22:92:e2:09:fd:93:6c:36:
         54:b9:f7:7d:0c:bc:24:40:ce:ac:bd:dc:f3:83:b9:c8:58:78:
         05:5f:8c:7d:bd:10:07:ac:c9:83:76:c1:e2:5b:a2:91:08:af:
         43:83:02:33:4e:e7:cc:ee:ff:a3:cc:77:fe:af:0e:51:f8:9c:
         42:c8:a0:71:19:1a:33:31:2c:4a:2c:74:21:40:38:86:46:14:
         a0:21:c7:35:ab:80:e7:ba:6c:48:22:9c:76:8c:d8:c5:ef:82:
         67:c0:34:ee:f8:7d:47:55:b3:ce:55:47:a1:bf:5e:68:57:15:
         75:fb:30:e3:cc:9a:6c:db:7d:0e:68:6d:ed:e6:d5:7f:2e:66:
         90:d6:52:ae
-----BEGIN CERTIFICATE-----
MIIDyTCCArGgAwIBAgIJAMdSnykqnhnAMA0GCSqGSIb3DQEBBQUAMHsxCzAJBgNV
BAYTAkNOMREwDwYDVQQIDAhTaGFuZ2hhaTERMA8GA1UECgwIVGhlRHJlYW0xDTAL
BgNVBAsMBFRlY2gxFzAVBgNVBAMMDmxkYXAubG9jYWwuY29tMR4wHAYJKoZIhvcN
AQkBFg9jcHBraW5nQDEyNi5jb20wHhcNMTUxMDA5MDI1NzAyWhcNMTgxMDA4MDI1
NzAyWjB7MQswCQYDVQQGEwJDTjERMA8GA1UECAwIU2hhbmdoYWkxETAPBgNVBAoM
CFRoZURyZWFtMQ0wCwYDVQQLDARUZWNoMRcwFQYDVQQDDA5sZGFwLmxvY2FsLmNv
bTEeMBwGCSqGSIb3DQEJARYPY3Bwa2luZ0AxMjYuY29tMIIBIjANBgkqhkiG9w0B
AQEFAAOCAQ8AMIIBCgKCAQEAuJZ9BNW1raTB8Th7oL9OmvAM1ckxEUurS67j1QlH
6SuUBqJzBRPLJtnN8fHkZ5MyuSSdAgVVpEzajLJAaNO3hRm1wKp0iWTsSRkWjcDo
prx5mTvio9WyScH5K9AZtEqC41IXFRKzHUJx19wShvBcaVKwwTrWBSDDWtH9jFdq
8aZ2v0qn/1tVpCAGKvs2PCRBXmK2SSs9Hbvf0fHy9wnh60uI3xz/MtMpYKJ1biyL
h1EtaNchVMvZ+jPr1lGpfL5xrA/ohAh4G09TuvFMqwkuFsJ85tq25k1YjTypXhAU
8Q1Zp8rOjgEaVr1/H12rdFg/ArrIhpU1cg/UpYZc8g7yYwIDAQABo1AwTjAdBgNV
HQ4EFgQUTgCZkJmJFaEFoKHiuxi5b8UuIYAwHwYDVR0jBBgwFoAUTgCZkJmJFaEF
oKHiuxi5b8UuIYAwDAYDVR0TBAUwAwEB/zANBgkqhkiG9w0BAQUFAAOCAQEAMuLR
6JOxSXfUJM9Qd9GxesnQLPFKg+y7xjhBYwgM/Tqq3Fnik3ZssDrUkNqFCIFz9oBg
TL9P0KZ3zAab/nahOJbpav1pfzkzOPzuOxT8maJ+PqPss1yixotHrrQTjhDmzpai
toNcA5zCJRlt82Bv8Ki2obf8fCKS4gn9k2w2VLn3fQy8JEDOrL3c84O5yFh4BV+M
fb0QB6zJg3bB4luikQivQ4MCM07nzO7/o8x3/q8OUficQsigcRkaMzEsSix0IUA4
hkYUoCHHNauA57psSCKcdozYxe+CZ8A07vh9R1WzzlVHob9eaFcVdfsw48yabNt9
Dmht7ebVfy5mkNZSrg==
-----END CERTIFICATE-----
